target datalayout = "e-m:e-p270:32:32-p271:32:32-p272:64:64-i64:64-i128:128-f80:128-n8:16:32:64-S128"
target triple = "x86_64-pc-linux-gnu"

%struct.AVCodecContext = type { ptr, i32, i32, ptr, i32, i32, ptr, ptr, ptr, i64, i32, i32, ptr, i32, %struct.AVRational, %struct.AVRational, %struct.AVRational, i32, i32, i32, i32, i32, %struct.AVRational, i32, i32, i32, i32, i32, i32, i32, i32, i32, i32, i32, ptr, ptr, i32, float, float, float, float, float, float, float, float, float, i32, i32, i32, i32, i32, i32, i32, i32, i32, i32, i32, i32, ptr, ptr, ptr, i32, i32, i32, i32, i32, i32, i32, i32, i32, i32, %struct.AVChannelLayout, i32, i32, i32, i32, i32, i32, i32, i32, ptr, i32, i32, i32, float, float, i32, i32, i32, i32, i32, ptr, i64, i64, float, float, i32, i32, ptr, ptr, i32, i32, i32, i32, i32, ptr, ptr, ptr, ptr, i32, i32, [8 x i64], i32, i32, i32, i32, i32, i32, i32, ptr, ptr, i32, i32, i32, i32, i32, i32, i32, i32, i32, i32, ptr, ptr, i32, i32, ptr, ptr, ptr, ptr, i32, i32, i64, i32, i32, i64, ptr, i64, ptr, i32, ptr, i32 }
%struct.AVRational = type { i32, i32 }
%struct.AVChannelLayout = type { i32, i32, %union.anon.0, ptr }
%union.anon.0 = type { i64 }
%struct.FlashSV2Context = type { ptr, ptr, ptr, ptr, ptr, ptr, ptr, i32, ptr, ptr, i32, i32, i32, i32, i32, i32, i32, i64, i32, i32, i32, i32, i8, i8, i8, %struct.Palette, %struct.FFZStream }
%struct.Palette = type { [128 x i32], [32768 x i8] }
%struct.FFZStream = type { %struct.z_stream_s, i32 }
%struct.z_stream_s = type { ptr, i32, i64, ptr, i32, i64, ptr, ptr, ptr, ptr, ptr, i32, i64, i64 }

@.str.2 = private unnamed_addr constant [41 x i8] c"Compression level should be 0-9, not %d\0A\00", align 1
@.str.3 = private unnamed_addr constant [59 x i8] c"Input dimensions too large, input must be max 4095x4095 !\0A\00", align 1
@.str.4 = private unnamed_addr constant [60 x i8] c"Input dimensions too small, input must be at least 16x16 !\0A\00", align 1
@.str.5 = private unnamed_addr constant [27 x i8] c"Memory allocation failed.\0A\00", align 1

; Function Attrs: nounwind uwtable
define internal void @reset_stats(ptr noundef %0) #1 {
  %2 = alloca ptr, align 8
  store ptr %0, ptr %2, align 8, !tbaa !29
  ret void
}

; Function Attrs: cold nounwind optsize uwtable
define internal i32 @flashsv2_encode_init(ptr noundef %0) #0 {
  %2 = alloca i32, align 4
  %3 = alloca ptr, align 8
  %4 = alloca ptr, align 8
  %5 = alloca i32, align 4
  %6 = alloca i32, align 4
  store ptr %0, ptr %3, align 8, !tbaa !4
  call void @llvm.lifetime.start.p0(i64 8, ptr %4) #11
  %7 = load ptr, ptr %3, align 8, !tbaa !4
  %8 = getelementptr inbounds nuw %struct.AVCodecContext, ptr %7, i32 0, i32 6
  %9 = load ptr, ptr %8, align 8, !tbaa !9
  store ptr %9, ptr %4, align 8, !tbaa !29
  call void @llvm.lifetime.start.p0(i64 4, ptr %5) #11
  %10 = load ptr, ptr %3, align 8, !tbaa !4
  %11 = load ptr, ptr %4, align 8, !tbaa !29
  %12 = getelementptr inbounds nuw %struct.FlashSV2Context, ptr %11, i32 0, i32 0
  store ptr %10, ptr %12, align 8, !tbaa !31
  %13 = load ptr, ptr %3, align 8, !tbaa !4
  %14 = getelementptr inbounds nuw %struct.AVCodecContext, ptr %13, i32 0, i32 83
  %15 = load i32, ptr %14, align 8, !tbaa !38
  %16 = load ptr, ptr %4, align 8, !tbaa !29
  %17 = getelementptr inbounds nuw %struct.FlashSV2Context, ptr %16, i32 0, i32 14
  store i32 %15, ptr %17, align 8, !tbaa !39
  %18 = load ptr, ptr %4, align 8, !tbaa !29
  %19 = getelementptr inbounds nuw %struct.FlashSV2Context, ptr %18, i32 0, i32 14
  %20 = load i32, ptr %19, align 8, !tbaa !39
  %21 = icmp eq i32 %20, -1
  br i1 %21, label %22, label %25

22:                                               ; preds = %1
  %23 = load ptr, ptr %4, align 8, !tbaa !29
  %24 = getelementptr inbounds nuw %struct.FlashSV2Context, ptr %23, i32 0, i32 14
  store i32 9, ptr %24, align 8, !tbaa !39
  br label %25

25:                                               ; preds = %22, %1
  %26 = load ptr, ptr %4, align 8, !tbaa !29
  %27 = getelementptr inbounds nuw %struct.FlashSV2Context, ptr %26, i32 0, i32 14
  %28 = load i32, ptr %27, align 8, !tbaa !39
  %29 = icmp slt i32 %28, 0
  br i1 %29, label %35, label %30

30:                                               ; preds = %25
  %31 = load ptr, ptr %4, align 8, !tbaa !29
  %32 = getelementptr inbounds nuw %struct.FlashSV2Context, ptr %31, i32 0, i32 14
  %33 = load i32, ptr %32, align 8, !tbaa !39
  %34 = icmp sgt i32 %33, 9
  br i1 %34, label %35, label %40

35:                                               ; preds = %30, %25
  %36 = load ptr, ptr %3, align 8, !tbaa !4
  %37 = load ptr, ptr %4, align 8, !tbaa !29
  %38 = getelementptr inbounds nuw %struct.FlashSV2Context, ptr %37, i32 0, i32 14
  %39 = load i32, ptr %38, align 8, !tbaa !39
  call void (ptr, i32, ptr, ...) @av_log(ptr noundef %36, i32 noundef 16, ptr noundef @.str.2, i32 noundef %39)
  store i32 -22, ptr %2, align 4
  store i32 1, ptr %6, align 4
  br label %181

40:                                               ; preds = %30
  %41 = load ptr, ptr %3, align 8, !tbaa !4
  %42 = getelementptr inbounds nuw %struct.AVCodecContext, ptr %41, i32 0, i32 18
  %43 = load i32, ptr %42, align 8, !tbaa !40
  %44 = icmp sgt i32 %43, 4095
  br i1 %44, label %50, label %45

45:                                               ; preds = %40
  %46 = load ptr, ptr %3, align 8, !tbaa !4
  %47 = getelementptr inbounds nuw %struct.AVCodecContext, ptr %46, i32 0, i32 19
  %48 = load i32, ptr %47, align 4, !tbaa !41
  %49 = icmp sgt i32 %48, 4095
  br i1 %49, label %50, label %52

50:                                               ; preds = %45, %40
  %51 = load ptr, ptr %3, align 8, !tbaa !4
  call void (ptr, i32, ptr, ...) @av_log(ptr noundef %51, i32 noundef 16, ptr noundef @.str.3)
  store i32 -22, ptr %2, align 4
  store i32 1, ptr %6, align 4
  br label %181

52:                                               ; preds = %45
  %53 = load ptr, ptr %3, align 8, !tbaa !4
  %54 = getelementptr inbounds nuw %struct.AVCodecContext, ptr %53, i32 0, i32 18
  %55 = load i32, ptr %54, align 8, !tbaa !40
  %56 = icmp slt i32 %55, 16
  br i1 %56, label %62, label %57

57:                                               ; preds = %52
  %58 = load ptr, ptr %3, align 8, !tbaa !4
  %59 = getelementptr inbounds nuw %struct.AVCodecContext, ptr %58, i32 0, i32 19
  %60 = load i32, ptr %59, align 4, !tbaa !41
  %61 = icmp slt i32 %60, 16
  br i1 %61, label %62, label %64

62:                                               ; preds = %57, %52
  %63 = load ptr, ptr %3, align 8, !tbaa !4
  call void (ptr, i32, ptr, ...) @av_log(ptr noundef %63, i32 noundef 16, ptr noundef @.str.4)
  store i32 -22, ptr %2, align 4
  store i32 1, ptr %6, align 4
  br label %181

64:                                               ; preds = %57
  %65 = load ptr, ptr %3, align 8, !tbaa !4
  %66 = getelementptr inbounds nuw %struct.AVCodecContext, ptr %65, i32 0, i32 18
  %67 = load i32, ptr %66, align 8, !tbaa !40
  %68 = load ptr, ptr %3, align 8, !tbaa !4
  %69 = getelementptr inbounds nuw %struct.AVCodecContext, ptr %68, i32 0, i32 19
  %70 = load i32, ptr %69, align 4, !tbaa !41
  %71 = load ptr, ptr %3, align 8, !tbaa !4
  %72 = call i32 @av_image_check_size(i32 noundef %67, i32 noundef %70, i32 noundef 0, ptr noundef %71)
  store i32 %72, ptr %5, align 4, !tbaa !42
  %73 = icmp slt i32 %72, 0
  br i1 %73, label %74, label %76

74:                                               ; preds = %64
  %75 = load i32, ptr %5, align 4, !tbaa !42
  store i32 %75, ptr %2, align 4
  store i32 1, ptr %6, align 4
  br label %181

76:                                               ; preds = %64
  %77 = load ptr, ptr %4, align 8, !tbaa !29
  %78 = getelementptr inbounds nuw %struct.FlashSV2Context, ptr %77, i32 0, i32 26
  %79 = load ptr, ptr %4, align 8, !tbaa !29
  %80 = getelementptr inbounds nuw %struct.FlashSV2Context, ptr %79, i32 0, i32 14
  %81 = load i32, ptr %80, align 8, !tbaa !39
  %82 = load ptr, ptr %3, align 8, !tbaa !4
  %83 = call i32 @ff_deflate_init(ptr noundef %78, i32 noundef %81, ptr noundef %82)
  store i32 %83, ptr %5, align 4, !tbaa !42
  %84 = load i32, ptr %5, align 4, !tbaa !42
  %85 = icmp slt i32 %84, 0
  br i1 %85, label %86, label %88

86:                                               ; preds = %76
  %87 = load i32, ptr %5, align 4, !tbaa !42
  store i32 %87, ptr %2, align 4
  store i32 1, ptr %6, align 4
  br label %181

88:                                               ; preds = %76
  %89 = load ptr, ptr %4, align 8, !tbaa !29
  %90 = getelementptr inbounds nuw %struct.FlashSV2Context, ptr %89, i32 0, i32 17
  store i64 0, ptr %90, align 8, !tbaa !43
  %91 = load ptr, ptr %3, align 8, !tbaa !4
  %92 = getelementptr inbounds nuw %struct.AVCodecContext, ptr %91, i32 0, i32 18
  %93 = load i32, ptr %92, align 8, !tbaa !40
  %94 = load ptr, ptr %4, align 8, !tbaa !29
  %95 = getelementptr inbounds nuw %struct.FlashSV2Context, ptr %94, i32 0, i32 18
  store i32 %93, ptr %95, align 8, !tbaa !44
  %96 = load ptr, ptr %3, align 8, !tbaa !4
  %97 = getelementptr inbounds nuw %struct.AVCodecContext, ptr %96, i32 0, i32 19
  %98 = load i32, ptr %97, align 4, !tbaa !41
  %99 = load ptr, ptr %4, align 8, !tbaa !29
  %100 = getelementptr inbounds nuw %struct.FlashSV2Context, ptr %99, i32 0, i32 19
  store i32 %98, ptr %100, align 4, !tbaa !45
  %101 = load ptr, ptr %4, align 8, !tbaa !29
  %102 = getelementptr inbounds nuw %struct.FlashSV2Context, ptr %101, i32 0, i32 18
  %103 = load i32, ptr %102, align 8, !tbaa !44
  %104 = load ptr, ptr %4, align 8, !tbaa !29
  %105 = getelementptr inbounds nuw %struct.FlashSV2Context, ptr %104, i32 0, i32 19
  %106 = load i32, ptr %105, align 4, !tbaa !45
  %107 = mul nsw i32 %103, %106
  %108 = mul nsw i32 %107, 3
  %109 = load ptr, ptr %4, align 8, !tbaa !29
  %110 = getelementptr inbounds nuw %struct.FlashSV2Context, ptr %109, i32 0, i32 10
  store i32 %108, ptr %110, align 8, !tbaa !46
  %111 = load ptr, ptr %4, align 8, !tbaa !29
  %112 = getelementptr inbounds nuw %struct.FlashSV2Context, ptr %111, i32 0, i32 10
  %113 = load i32, ptr %112, align 8, !tbaa !46
  %114 = sext i32 %113 to i64
  %115 = call noalias ptr @av_mallocz(i64 noundef %114)
  %116 = load ptr, ptr %4, align 8, !tbaa !29
  %117 = getelementptr inbounds nuw %struct.FlashSV2Context, ptr %116, i32 0, i32 3
  store ptr %115, ptr %117, align 8, !tbaa !47
  %118 = load ptr, ptr %4, align 8, !tbaa !29
  %119 = getelementptr inbounds nuw %struct.FlashSV2Context, ptr %118, i32 0, i32 10
  %120 = load i32, ptr %119, align 8, !tbaa !46
  %121 = sext i32 %120 to i64
  %122 = call noalias ptr @av_mallocz(i64 noundef %121)
  %123 = load ptr, ptr %4, align 8, !tbaa !29
  %124 = getelementptr inbounds nuw %struct.FlashSV2Context, ptr %123, i32 0, i32 4
  store ptr %122, ptr %124, align 8, !tbaa !48
  %125 = load ptr, ptr %4, align 8, !tbaa !29
  %126 = getelementptr inbounds nuw %struct.FlashSV2Context, ptr %125, i32 0, i32 10
  %127 = load i32, ptr %126, align 8, !tbaa !46
  %128 = mul nsw i32 %127, 6
  %129 = sext i32 %128 to i64
  %130 = call noalias ptr @av_mallocz(i64 noundef %129)
  %131 = load ptr, ptr %4, align 8, !tbaa !29
  %132 = getelementptr inbounds nuw %struct.FlashSV2Context, ptr %131, i32 0, i32 5
  store ptr %130, ptr %132, align 8, !tbaa !49
  %133 = load ptr, ptr %4, align 8, !tbaa !29
  %134 = getelementptr inbounds nuw %struct.FlashSV2Context, ptr %133, i32 0, i32 10
  %135 = load i32, ptr %134, align 8, !tbaa !46
  %136 = sext i32 %135 to i64
  %137 = call noalias ptr @av_mallocz(i64 noundef %136)
  %138 = load ptr, ptr %4, align 8, !tbaa !29
  %139 = getelementptr inbounds nuw %struct.FlashSV2Context, ptr %138, i32 0, i32 1
  store ptr %137, ptr %139, align 8, !tbaa !50
  %140 = load ptr, ptr %4, align 8, !tbaa !29
  %141 = getelementptr inbounds nuw %struct.FlashSV2Context, ptr %140, i32 0, i32 10
  %142 = load i32, ptr %141, align 8, !tbaa !46
  %143 = sext i32 %142 to i64
  %144 = call noalias ptr @av_mallocz(i64 noundef %143)
  %145 = load ptr, ptr %4, align 8, !tbaa !29
  %146 = getelementptr inbounds nuw %struct.FlashSV2Context, ptr %145, i32 0, i32 2
  store ptr %144, ptr %146, align 8, !tbaa !51
  %147 = load ptr, ptr %4, align 8, !tbaa !29
  %148 = getelementptr inbounds nuw %struct.FlashSV2Context, ptr %147, i32 0, i32 3
  %149 = load ptr, ptr %148, align 8, !tbaa !47
  %150 = icmp ne ptr %149, null
  br i1 %150, label %151, label %171

151:                                              ; preds = %88
  %152 = load ptr, ptr %4, align 8, !tbaa !29
  %153 = getelementptr inbounds nuw %struct.FlashSV2Context, ptr %152, i32 0, i32 4
  %154 = load ptr, ptr %153, align 8, !tbaa !48
  %155 = icmp ne ptr %154, null
  br i1 %155, label %156, label %171

156:                                              ; preds = %151
  %157 = load ptr, ptr %4, align 8, !tbaa !29
  %158 = getelementptr inbounds nuw %struct.FlashSV2Context, ptr %157, i32 0, i32 5
  %159 = load ptr, ptr %158, align 8, !tbaa !49
  %160 = icmp ne ptr %159, null
  br i1 %160, label %161, label %171

161:                                              ; preds = %156
  %162 = load ptr, ptr %4, align 8, !tbaa !29
  %163 = getelementptr inbounds nuw %struct.FlashSV2Context, ptr %162, i32 0, i32 1
  %164 = load ptr, ptr %163, align 8, !tbaa !50
  %165 = icmp ne ptr %164, null
  br i1 %165, label %166, label %171

166:                                              ; preds = %161
  %167 = load ptr, ptr %4, align 8, !tbaa !29
  %168 = getelementptr inbounds nuw %struct.FlashSV2Context, ptr %167, i32 0, i32 2
  %169 = load ptr, ptr %168, align 8, !tbaa !51
  %170 = icmp ne ptr %169, null
  br i1 %170, label %173, label %171

171:                                              ; preds = %166, %161, %156, %151, %88
  %172 = load ptr, ptr %3, align 8, !tbaa !4
  call void (ptr, i32, ptr, ...) @av_log(ptr noundef %172, i32 noundef 16, ptr noundef @.str.5)
  store i32 -12, ptr %2, align 4
  store i32 1, ptr %6, align 4
  br label %181

173:                                              ; preds = %166
  %174 = load ptr, ptr %4, align 8, !tbaa !29
  call void @reset_stats(ptr noundef %174)
  %175 = load ptr, ptr %4, align 8, !tbaa !29
  %176 = getelementptr inbounds nuw %struct.FlashSV2Context, ptr %175, i32 0, i32 23
  store i8 0, ptr %176, align 1, !tbaa !52
  %177 = load ptr, ptr %4, align 8, !tbaa !29
  %178 = getelementptr inbounds nuw %struct.FlashSV2Context, ptr %177, i32 0, i32 24
  store i8 -1, ptr %178, align 2, !tbaa !53
  %179 = load ptr, ptr %4, align 8, !tbaa !29
  %180 = call i32 @update_block_dimensions(ptr noundef %179, i32 noundef 64, i32 noundef 64)
  store i32 %180, ptr %2, align 4
  store i32 1, ptr %6, align 4
  br label %181

181:                                              ; preds = %173, %171, %86, %74, %62, %50, %35
  call void @llvm.lifetime.end.p0(i64 4, ptr %5) #11
  call void @llvm.lifetime.end.p0(i64 8, ptr %4) #11
  %182 = load i32, ptr %2, align 4
  ret i32 %182
}