; Function Attrs: cold nounwind optsize uwtable
define internal range(i32 -2147483648, 1) i32 @flashsv2_encode_init(ptr noundef %0) #0 {
  %2 = getelementptr inbounds nuw i8, ptr %0, i64 32
  %3 = load ptr, ptr %2, align 8, !tbaa !4
  store ptr %0, ptr %3, align 8, !tbaa !27
  %4 = getelementptr inbounds nuw i8, ptr %0, i64 424
  %5 = load i32, ptr %4, align 8, !tbaa !35
  %6 = getelementptr inbounds nuw i8, ptr %3, i64 96
  %7 = icmp eq i32 %5, -1
  %spec.select = select i1 %7, i32 9, i32 %5
  store i32 %spec.select, ptr %6, align 8, !tbaa !36
  %or.cond = icmp ugt i32 %spec.select, 9
  br i1 %or.cond, label %8, label %9

8:                                                ; preds = %1
  tail call void (ptr, i32, ptr, ...) @av_log(ptr noundef nonnull %0, i32 noundef 16, ptr noundef nonnull @.str.2, i32 noundef %spec.select) #9
  br label %71

9:                                                ; preds = %1
  %10 = getelementptr inbounds nuw i8, ptr %0, i64 112
  %11 = load i32, ptr %10, align 8, !tbaa !37
  %12 = icmp sgt i32 %11, 4095
  br i1 %12, label %17, label %13

13:                                               ; preds = %9
  %14 = getelementptr inbounds nuw i8, ptr %0, i64 116
  %15 = load i32, ptr %14, align 4, !tbaa !38
  %16 = icmp sgt i32 %15, 4095
  br i1 %16, label %17, label %18

17:                                               ; preds = %13, %9
  tail call void (ptr, i32, ptr, ...) @av_log(ptr noundef nonnull %0, i32 noundef 16, ptr noundef nonnull @.str.3) #9
  br label %71

18:                                               ; preds = %13
  %19 = icmp slt i32 %11, 16
  %20 = icmp slt i32 %15, 16
  %or.cond63 = or i1 %19, %20
  br i1 %or.cond63, label %21, label %22

21:                                               ; preds = %18
  tail call void (ptr, i32, ptr, ...) @av_log(ptr noundef nonnull %0, i32 noundef 16, ptr noundef nonnull @.str.4) #9
  br label %71

22:                                               ; preds = %18
  %23 = tail call i32 @av_image_check_size(i32 noundef %11, i32 noundef %15, i32 noundef 0, ptr noundef nonnull %0) #9
  %24 = icmp slt i32 %23, 0
  br i1 %24, label %71, label %25

25:                                               ; preds = %22
  %26 = getelementptr inbounds nuw i8, ptr %3, i64 33424
  %27 = load i32, ptr %6, align 8, !tbaa !36
  %28 = tail call i32 @ff_deflate_init(ptr noundef nonnull %26, i32 noundef %27, ptr noundef nonnull %0) #9
  %29 = icmp slt i32 %28, 0
  br i1 %29, label %71, label %30

30:                                               ; preds = %25
  %31 = getelementptr inbounds nuw i8, ptr %3, i64 112
  store i64 0, ptr %31, align 8, !tbaa !39
  %32 = load i32, ptr %10, align 8, !tbaa !37
  %33 = getelementptr inbounds nuw i8, ptr %3, i64 120
  store i32 %32, ptr %33, align 8, !tbaa !40
  %34 = load i32, ptr %14, align 4, !tbaa !38
  %35 = getelementptr inbounds nuw i8, ptr %3, i64 124
  store i32 %34, ptr %35, align 4, !tbaa !41
  %36 = mul i32 %32, 3
  %37 = mul i32 %36, %34
  %38 = getelementptr inbounds nuw i8, ptr %3, i64 80
  store i32 %37, ptr %38, align 8, !tbaa !42
  %39 = sext i32 %37 to i64
  %40 = tail call noalias ptr @av_mallocz(i64 noundef %39) #9
  %41 = getelementptr inbounds nuw i8, ptr %3, i64 24
  store ptr %40, ptr %41, align 8, !tbaa !43
  %42 = load i32, ptr %38, align 8, !tbaa !42
  %43 = sext i32 %42 to i64
  %44 = tail call noalias ptr @av_mallocz(i64 noundef %43) #9
  %45 = getelementptr inbounds nuw i8, ptr %3, i64 32
  store ptr %44, ptr %45, align 8, !tbaa !44
  %46 = load i32, ptr %38, align 8, !tbaa !42
  %47 = mul nsw i32 %46, 6
  %48 = sext i32 %47 to i64
  %49 = tail call noalias ptr @av_mallocz(i64 noundef %48) #9
  %50 = getelementptr inbounds nuw i8, ptr %3, i64 40
  store ptr %49, ptr %50, align 8, !tbaa !45
  %51 = load i32, ptr %38, align 8, !tbaa !42
  %52 = sext i32 %51 to i64
  %53 = tail call noalias ptr @av_mallocz(i64 noundef %52) #9
  %54 = getelementptr inbounds nuw i8, ptr %3, i64 8
  store ptr %53, ptr %54, align 8, !tbaa !46
  %55 = load i32, ptr %38, align 8, !tbaa !42
  %56 = sext i32 %55 to i64
  %57 = tail call noalias ptr @av_mallocz(i64 noundef %56) #9
  %58 = getelementptr inbounds nuw i8, ptr %3, i64 16
  store ptr %57, ptr %58, align 8, !tbaa !47
  %59 = load ptr, ptr %41, align 8, !tbaa !43
  %.not = icmp eq ptr %59, null
  br i1 %.not, label %66, label %60

60:                                               ; preds = %30
  %61 = load ptr, ptr %45, align 8, !tbaa !44
  %.not59 = icmp eq ptr %61, null
  br i1 %.not59, label %66, label %62

62:                                               ; preds = %60
  %63 = load ptr, ptr %50, align 8, !tbaa !45
  %.not60 = icmp eq ptr %63, null
  br i1 %.not60, label %66, label %64

64:                                               ; preds = %62
  %65 = load ptr, ptr %54, align 8, !tbaa !46
  %.not61 = icmp eq ptr %65, null
  %.not62 = icmp eq ptr %57, null
  %or.cond64 = select i1 %.not61, i1 true, i1 %.not62
  br i1 %or.cond64, label %66, label %67

66:                                               ; preds = %64, %62, %60, %30
  tail call void (ptr, i32, ptr, ...) @av_log(ptr noundef nonnull %0, i32 noundef 16, ptr noundef nonnull @.str.5) #9
  br label %71

67:                                               ; preds = %64
  %68 = getelementptr inbounds nuw i8, ptr %3, i64 137
  store i8 0, ptr %68, align 1, !tbaa !48
  %69 = getelementptr inbounds nuw i8, ptr %3, i64 138
  store i8 -1, ptr %69, align 2, !tbaa !49
  %70 = tail call fastcc i32 @update_block_dimensions(ptr noundef nonnull %3)
  br label %71

71:                                               ; preds = %25, %22, %67, %66, %21, %17, %8
  %.0 = phi i32 [ -22, %8 ], [ -22, %17 ], [ -22, %21 ], [ %70, %67 ], [ -12, %66 ], [ %23, %22 ], [ %28, %25 ]
  ret i32 %.0
}